target datalayout = "e-m:e-p270:32:32-p271:32:32-p272:64:64-i64:64-i128:128-f80:128-n8:16:32:64-S128"
target triple = "x86_64-pc-linux-gnu"

%struct.SDL_GUID = type { [16 x i8] }
%struct.SDL_VirtualJoystickDesc = type { i32, i16, i16, i16, i16, i16, i16, i16, i16, i16, i16, [2 x i16], i32, i32, ptr, ptr, ptr, ptr, ptr, ptr, ptr, ptr, ptr, ptr, ptr, ptr }
%struct.joystick_hwdata = type { i32, i8, ptr, i32, %struct.SDL_GUID, %struct.SDL_VirtualJoystickDesc, i32, ptr, ptr, ptr, ptr, ptr, ptr, i8, i32, i32, ptr, ptr, ptr }

@g_VJoys = internal global ptr null, align 8
@.str.15 = private unnamed_addr constant [32 x i8] c"Virtual joystick data not found\00", align 1

; Function Attrs: nounwind uwtable
define internal ptr @VIRTUAL_HWDataForInstance(i32 noundef %0) #0 {
  %2 = alloca ptr, align 8
  %3 = alloca i32, align 4
  %4 = alloca ptr, align 8
  %5 = alloca i32, align 4
  store i32 %0, ptr %3, align 4
  call void @llvm.lifetime.start.p0(i64 8, ptr %4) #7
  call void @SDL_AssertJoysticksLocked()
  %6 = load ptr, ptr @g_VJoys, align 8
  store ptr %6, ptr %4, align 8
  br label %7

7:                                                ; preds = %19, %1
  %8 = load ptr, ptr %4, align 8
  %9 = icmp ne ptr %8, null
  br i1 %9, label %10, label %23

10:                                               ; preds = %7
  %11 = load i32, ptr %3, align 4
  %12 = load ptr, ptr %4, align 8
  %13 = getelementptr inbounds nuw %struct.joystick_hwdata, ptr %12, i32 0, i32 0
  %14 = load i32, ptr %13, align 8
  %15 = icmp eq i32 %11, %14
  br i1 %15, label %16, label %18

16:                                               ; preds = %10
  %17 = load ptr, ptr %4, align 8
  store ptr %17, ptr %2, align 8
  store i32 1, ptr %5, align 4
  br label %24

18:                                               ; preds = %10
  br label %19

19:                                               ; preds = %18
  %20 = load ptr, ptr %4, align 8
  %21 = getelementptr inbounds nuw %struct.joystick_hwdata, ptr %20, i32 0, i32 18
  %22 = load ptr, ptr %21, align 8
  store ptr %22, ptr %4, align 8
  br label %7, !llvm.loop !11

23:                                               ; preds = %7
  store ptr null, ptr %2, align 8
  store i32 1, ptr %5, align 4
  br label %24

24:                                               ; preds = %23, %16
  call void @llvm.lifetime.end.p0(i64 8, ptr %4) #7
  %25 = load ptr, ptr %2, align 8
  ret ptr %25
}

; Function Attrs: nounwind uwtable
define hidden zeroext i1 @SDL_JoystickDetachVirtualInner(i32 noundef %0) #0 {
  %2 = alloca i1, align 1
  %3 = alloca i32, align 4
  %4 = alloca ptr, align 8
  %5 = alloca i32, align 4
  store i32 %0, ptr %3, align 4
  call void @llvm.lifetime.start.p0(i64 8, ptr %4) #7
  %6 = load i32, ptr %3, align 4
  %7 = call ptr @VIRTUAL_HWDataForInstance(i32 noundef %6)
  store ptr %7, ptr %4, align 8
  %8 = load ptr, ptr %4, align 8
  %9 = icmp ne ptr %8, null
  br i1 %9, label %12, label %10

10:                                               ; preds = %1
  %11 = call zeroext i1 (ptr, ...) @SDL_SetError_REAL(ptr noundef @.str.15)
  store i1 %11, ptr %2, align 1
  store i32 1, ptr %5, align 4
  br label %15

12:                                               ; preds = %1
  %13 = load ptr, ptr %4, align 8
  call void @VIRTUAL_FreeHWData(ptr noundef %13)
  %14 = load i32, ptr %3, align 4
  call void @SDL_PrivateJoystickRemoved(i32 noundef %14)
  store i1 true, ptr %2, align 1
  store i32 1, ptr %5, align 4
  br label %15

15:                                               ; preds = %12, %10
  call void @llvm.lifetime.end.p0(i64 8, ptr %4) #7
  %16 = load i1, ptr %2, align 1
  ret i1 %16
}