; Function Attrs: nounwind uwtable
define hidden zeroext i1 @SDL_JoystickDetachVirtualInner(i32 noundef %0) local_unnamed_addr #0 {
  tail call void @SDL_AssertJoysticksLocked() #8
  %.06.i = load ptr, ptr @g_VJoys, align 8
  %.not7.i = icmp eq ptr %.06.i, null
  br i1 %.not7.i, label %.loopexit, label %.lr.ph.i

.lr.ph.i:                                         ; preds = %1, %4
  %.08.i = phi ptr [ %.0.i, %4 ], [ %.06.i, %1 ]
  %2 = load i32, ptr %.08.i, align 8
  %3 = icmp eq i32 %0, %2
  br i1 %3, label %VIRTUAL_HWDataForInstance.exit, label %4

4:                                                ; preds = %.lr.ph.i
  %5 = getelementptr inbounds nuw i8, ptr %.08.i, i64 264
  %.0.i = load ptr, ptr %5, align 8
  %.not.i = icmp eq ptr %.0.i, null
  br i1 %.not.i, label %.loopexit, label %.lr.ph.i, !llvm.loop !11

.loopexit:                                        ; preds = %4, %1
  %6 = tail call zeroext i1 (ptr, ...) @SDL_SetError_REAL(ptr noundef nonnull @.str.15) #8
  br label %7

VIRTUAL_HWDataForInstance.exit:                   ; preds = %.lr.ph.i
  tail call fastcc void @VIRTUAL_FreeHWData(ptr noundef nonnull %.08.i)
  tail call void @SDL_PrivateJoystickRemoved(i32 noundef %0) #8
  br label %7

7:                                                ; preds = %VIRTUAL_HWDataForInstance.exit, %.loopexit
  %.0 = phi i1 [ true, %VIRTUAL_HWDataForInstance.exit ], [ %6, %.loopexit ]
  ret i1 %.0
}